; Function Attrs: mustprogress uwtable
define void @_ZNK4LIEF3DEX5Class4nameB5cxx11Ev(ptr dead_on_unwind noalias writable sret(%"class.std::__cxx11::basic_string") align 8 %0, ptr noundef nonnull align 8 dereferenceable(140) %1) local_unnamed_addr #0 align 2 {
  %3 = getelementptr inbounds i8, ptr %1, i64 8
  %4 = tail call noundef i64 @_ZNKSt7__cxx1112basic_stringIcSt11char_traitsIcESaIcEE12find_last_ofEcm(ptr noundef nonnull align 8 dereferenceable(32) %3, i8 noundef signext 47, i64 noundef -1) #17
  %5 = icmp eq i64 %4, -1
  br i1 %5, label %6, label %8

6:                                                ; preds = %2
  %7 = tail call noundef i64 @_ZNKSt7__cxx1112basic_stringIcSt11char_traitsIcESaIcEE4sizeEv(ptr noundef nonnull align 8 dereferenceable(32) %3) #17
  br label %11

8:                                                ; preds = %2
  %9 = add nuw i64 %4, 1
  %10 = tail call noundef i64 @_ZNKSt7__cxx1112basic_stringIcSt11char_traitsIcESaIcEE4sizeEv(ptr noundef nonnull align 8 dereferenceable(32) %3) #17
  %reass.sub = sub i64 %10, %4
  br label %11

11:                                               ; preds = %8, %6
  %reass.sub.sink = phi i64 [ %reass.sub, %8 ], [ %7, %6 ]
  %.sink = phi i64 [ %9, %8 ], [ 1, %6 ]
  %12 = add i64 %reass.sub.sink, -2
  tail call void @_ZNKSt7__cxx1112basic_stringIcSt11char_traitsIcESaIcEE6substrEmm(ptr dead_on_unwind writable sret(%"class.std::__cxx11::basic_string") align 8 %0, ptr noundef nonnull align 8 dereferenceable(32) %3, i64 noundef %.sink, i64 noundef %12)
  ret void
}